target datalayout = "e-m:e-p270:32:32-p271:32:32-p272:64:64-i64:64-i128:128-f80:128-n8:16:32:64-S128"
target triple = "x86_64-pc-linux-gnu"

%struct.quic_obj_st = type { %struct.ssl_st, ptr, ptr, ptr, ptr, ptr, i64, i8 }
%struct.ssl_st = type { i32, ptr, ptr, ptr, %struct.CRYPTO_REF_COUNT, ptr, %struct.crypto_ex_data_st }
%struct.CRYPTO_REF_COUNT = type { i32 }
%struct.crypto_ex_data_st = type { ptr, ptr }
%struct.qctx_st = type { ptr, ptr, ptr, ptr, ptr, i32, i32, i32, i32 }
%struct.quic_port_args_st = type { ptr, ptr, ptr, ptr, i32, i32 }
%struct.quic_listener_st = type { %struct.quic_obj_st, ptr, ptr, ptr, ptr, i8 }
%struct.quic_domain_st = type { %struct.quic_obj_st, ptr, ptr }

@.str = private unnamed_addr constant [32 x i8] c"../openssl/ssl/quic/quic_impl.c\00", align 1
@__func__.ossl_quic_new_listener_from = private unnamed_addr constant [28 x i8] c"ossl_quic_new_listener_from\00", align 1

; Function Attrs: inlinehint nounwind uwtable
define internal ptr @ossl_quic_obj_get0_engine(ptr noundef %0) #3 {
  %2 = alloca ptr, align 8
  store ptr %0, ptr %2, align 8, !tbaa !172
  %3 = load ptr, ptr %2, align 8, !tbaa !172
  %4 = getelementptr inbounds nuw %struct.quic_obj_st, ptr %3, i32 0, i32 4
  %5 = load ptr, ptr %4, align 8, !tbaa !168
  ret ptr %5
}

; Function Attrs: inlinehint nounwind uwtable
define internal ptr @ossl_quic_obj_get0_mutex(ptr noundef %0) #3 {
  %2 = alloca ptr, align 8
  store ptr %0, ptr %2, align 8, !tbaa !172
  %3 = load ptr, ptr %2, align 8, !tbaa !172
  %4 = call ptr @ossl_quic_obj_get0_engine(ptr noundef %3)
  %5 = call ptr @ossl_quic_engine_get0_mutex(ptr noundef %4)
  ret ptr %5
}

; Function Attrs: nounwind uwtable
define internal void @qctx_unlock(ptr noundef %0) #0 {
  %2 = alloca ptr, align 8
  store ptr %0, ptr %2, align 8, !tbaa !119
  %3 = load ptr, ptr %2, align 8, !tbaa !119
  %4 = getelementptr inbounds nuw %struct.qctx_st, ptr %3, i32 0, i32 0
  %5 = load ptr, ptr %4, align 8, !tbaa !166
  %6 = call ptr @ossl_quic_obj_get0_mutex(ptr noundef %5)
  call void @ossl_crypto_mutex_unlock(ptr noundef %6)
  ret void
}

; Function Attrs: nounwind uwtable
define internal void @qctx_lock(ptr noundef %0) #0 {
  %2 = alloca ptr, align 8
  store ptr %0, ptr %2, align 8, !tbaa !119
  %3 = load ptr, ptr %2, align 8, !tbaa !119
  %4 = getelementptr inbounds nuw %struct.qctx_st, ptr %3, i32 0, i32 0
  %5 = load ptr, ptr %4, align 8, !tbaa !166
  %6 = call ptr @ossl_quic_obj_get0_mutex(ptr noundef %5)
  call void @ossl_crypto_mutex_lock(ptr noundef %6)
  ret void
}

; Function Attrs: nounwind uwtable
define internal i32 @expect_quic_domain(ptr noundef %0, ptr noundef %1) #0 {
  %3 = alloca ptr, align 8
  %4 = alloca ptr, align 8
  store ptr %0, ptr %3, align 8, !tbaa !136
  store ptr %1, ptr %4, align 8, !tbaa !119
  %5 = load ptr, ptr %3, align 8, !tbaa !136
  %6 = load ptr, ptr %4, align 8, !tbaa !119
  %7 = call i32 @expect_quic_as(ptr noundef %5, ptr noundef %6, i32 noundef 128)
  ret i32 %7
}

; Function Attrs: nounwind uwtable
define ptr @ossl_quic_new_listener_from(ptr noundef %0, i64 noundef %1) #0 {
  %3 = alloca ptr, align 8
  %4 = alloca ptr, align 8
  %5 = alloca i64, align 8
  %6 = alloca %struct.qctx_st, align 8
  %7 = alloca ptr, align 8
  %8 = alloca %struct.quic_port_args_st, align 8
  %9 = alloca i32, align 4
  store ptr %0, ptr %4, align 8, !tbaa !136
  store i64 %1, ptr %5, align 8, !tbaa !169
  call void @llvm.lifetime.start.p0(i64 56, ptr %6) #10
  call void @llvm.lifetime.start.p0(i64 8, ptr %7) #10
  store ptr null, ptr %7, align 8, !tbaa !260
  call void @llvm.lifetime.start.p0(i64 40, ptr %8) #10
  call void @llvm.memset.p0.i64(ptr align 8 %8, i8 0, i64 40, i1 false)
  %10 = load ptr, ptr %4, align 8, !tbaa !136
  %11 = call i32 @expect_quic_domain(ptr noundef %10, ptr noundef %6)
  %12 = icmp ne i32 %11, 0
  br i1 %12, label %14, label %13

13:                                               ; preds = %2
  store ptr null, ptr %3, align 8
  store i32 1, ptr %9, align 4
  br label %107

14:                                               ; preds = %2
  %15 = getelementptr inbounds nuw %struct.qctx_st, ptr %6, i32 0, i32 1
  %16 = load ptr, ptr %15, align 8, !tbaa !158
  %17 = getelementptr inbounds nuw %struct.quic_domain_st, ptr %16, i32 0, i32 0
  %18 = getelementptr inbounds nuw %struct.quic_obj_st, ptr %17, i32 0, i32 0
  %19 = call i32 @SSL_up_ref(ptr noundef %18)
  %20 = icmp ne i32 %19, 0
  br i1 %20, label %22, label %21

21:                                               ; preds = %14
  store ptr null, ptr %3, align 8
  store i32 1, ptr %9, align 4
  br label %107

22:                                               ; preds = %14
  call void @qctx_lock(ptr noundef %6)
  %23 = call noalias ptr @CRYPTO_zalloc(i64 noundef 160, ptr noundef @.str, i32 noundef 4312)
  store ptr %23, ptr %7, align 8, !tbaa !260
  %24 = icmp eq ptr %23, null
  br i1 %24, label %25, label %27

25:                                               ; preds = %22
  %26 = call i32 (ptr, ptr, i32, ptr, i32, ptr, ...) @quic_raise_non_normal_error(ptr noundef null, ptr noundef @.str, i32 noundef 4313, ptr noundef @__func__.ossl_quic_new_listener_from, i32 noundef 524303, ptr noundef null)
  br label %94

27:                                               ; preds = %22
  %28 = load ptr, ptr %4, align 8, !tbaa !136
  %29 = getelementptr inbounds nuw %struct.ssl_st, ptr %28, i32 0, i32 1
  %30 = load ptr, ptr %29, align 8, !tbaa !267
  %31 = getelementptr inbounds nuw %struct.quic_port_args_st, ptr %8, i32 0, i32 3
  store ptr %30, ptr %31, align 8, !tbaa !132
  %32 = getelementptr inbounds nuw %struct.quic_port_args_st, ptr %8, i32 0, i32 4
  store i32 1, ptr %32, align 8, !tbaa !262
  %33 = getelementptr inbounds nuw %struct.quic_port_args_st, ptr %8, i32 0, i32 1
  store ptr @alloc_port_user_ssl, ptr %33, align 8, !tbaa !263
  %34 = load ptr, ptr %7, align 8, !tbaa !260
  %35 = getelementptr inbounds nuw %struct.quic_port_args_st, ptr %8, i32 0, i32 2
  store ptr %34, ptr %35, align 8, !tbaa !264
  %36 = load i64, ptr %5, align 8, !tbaa !169
  %37 = and i64 %36, 2
  %38 = icmp eq i64 %37, 0
  br i1 %38, label %39, label %41

39:                                               ; preds = %27
  %40 = getelementptr inbounds nuw %struct.quic_port_args_st, ptr %8, i32 0, i32 5
  store i32 1, ptr %40, align 4, !tbaa !265
  br label %41

41:                                               ; preds = %39, %27
  %42 = getelementptr inbounds nuw %struct.qctx_st, ptr %6, i32 0, i32 1
  %43 = load ptr, ptr %42, align 8, !tbaa !158
  %44 = getelementptr inbounds nuw %struct.quic_domain_st, ptr %43, i32 0, i32 1
  %45 = load ptr, ptr %44, align 8, !tbaa !159
  %46 = call ptr @ossl_quic_engine_create_port(ptr noundef %45, ptr noundef %8)
  %47 = load ptr, ptr %7, align 8, !tbaa !260
  %48 = getelementptr inbounds nuw %struct.quic_listener_st, ptr %47, i32 0, i32 3
  store ptr %46, ptr %48, align 8, !tbaa !162
  %49 = load ptr, ptr %7, align 8, !tbaa !260
  %50 = getelementptr inbounds nuw %struct.quic_listener_st, ptr %49, i32 0, i32 3
  %51 = load ptr, ptr %50, align 8, !tbaa !162
  %52 = icmp eq ptr %51, null
  br i1 %52, label %53, label %55

53:                                               ; preds = %41
  %54 = call i32 (ptr, ptr, i32, ptr, i32, ptr, ...) @quic_raise_non_normal_error(ptr noundef null, ptr noundef @.str, i32 noundef 4325, ptr noundef @__func__.ossl_quic_new_listener_from, i32 noundef 786691, ptr noundef null)
  br label %94

55:                                               ; preds = %41
  %56 = getelementptr inbounds nuw %struct.qctx_st, ptr %6, i32 0, i32 1
  %57 = load ptr, ptr %56, align 8, !tbaa !158
  %58 = load ptr, ptr %7, align 8, !tbaa !260
  %59 = getelementptr inbounds nuw %struct.quic_listener_st, ptr %58, i32 0, i32 1
  store ptr %57, ptr %59, align 8, !tbaa !164
  %60 = getelementptr inbounds nuw %struct.qctx_st, ptr %6, i32 0, i32 1
  %61 = load ptr, ptr %60, align 8, !tbaa !158
  %62 = getelementptr inbounds nuw %struct.quic_domain_st, ptr %61, i32 0, i32 1
  %63 = load ptr, ptr %62, align 8, !tbaa !159
  %64 = load ptr, ptr %7, align 8, !tbaa !260
  %65 = getelementptr inbounds nuw %struct.quic_listener_st, ptr %64, i32 0, i32 2
  store ptr %63, ptr %65, align 8, !tbaa !165
  %66 = getelementptr inbounds nuw %struct.qctx_st, ptr %6, i32 0, i32 1
  %67 = load ptr, ptr %66, align 8, !tbaa !158
  %68 = getelementptr inbounds nuw %struct.quic_domain_st, ptr %67, i32 0, i32 2
  %69 = load ptr, ptr %68, align 8, !tbaa !268
  %70 = load ptr, ptr %7, align 8, !tbaa !260
  %71 = getelementptr inbounds nuw %struct.quic_listener_st, ptr %70, i32 0, i32 4
  store ptr %69, ptr %71, align 8, !tbaa !261
  %72 = load ptr, ptr %7, align 8, !tbaa !260
  %73 = getelementptr inbounds nuw %struct.quic_listener_st, ptr %72, i32 0, i32 3
  %74 = load ptr, ptr %73, align 8, !tbaa !162
  call void @ossl_quic_port_set_allow_incoming(ptr noundef %74, i32 noundef 1)
  %75 = load ptr, ptr %7, align 8, !tbaa !260
  %76 = getelementptr inbounds nuw %struct.quic_listener_st, ptr %75, i32 0, i32 0
  %77 = load ptr, ptr %4, align 8, !tbaa !136
  %78 = getelementptr inbounds nuw %struct.ssl_st, ptr %77, i32 0, i32 1
  %79 = load ptr, ptr %78, align 8, !tbaa !267
  %80 = getelementptr inbounds nuw %struct.qctx_st, ptr %6, i32 0, i32 1
  %81 = load ptr, ptr %80, align 8, !tbaa !158
  %82 = getelementptr inbounds nuw %struct.quic_domain_st, ptr %81, i32 0, i32 0
  %83 = getelementptr inbounds nuw %struct.quic_obj_st, ptr %82, i32 0, i32 0
  %84 = load ptr, ptr %7, align 8, !tbaa !260
  %85 = getelementptr inbounds nuw %struct.quic_listener_st, ptr %84, i32 0, i32 3
  %86 = load ptr, ptr %85, align 8, !tbaa !162
  %87 = call i32 @ossl_quic_obj_init(ptr noundef %76, ptr noundef %79, i32 noundef 130, ptr noundef %83, ptr noundef null, ptr noundef %86)
  %88 = icmp ne i32 %87, 0
  br i1 %88, label %90, label %89

89:                                               ; preds = %55
  br label %94

90:                                               ; preds = %55
  call void @qctx_unlock(ptr noundef %6)
  %91 = load ptr, ptr %7, align 8, !tbaa !260
  %92 = getelementptr inbounds nuw %struct.quic_listener_st, ptr %91, i32 0, i32 0
  %93 = getelementptr inbounds nuw %struct.quic_obj_st, ptr %92, i32 0, i32 0
  store ptr %93, ptr %3, align 8
  store i32 1, ptr %9, align 4
  br label %107

94:                                               ; preds = %89, %53, %25
  %95 = load ptr, ptr %7, align 8, !tbaa !260
  %96 = icmp ne ptr %95, null
  br i1 %96, label %97, label %101

97:                                               ; preds = %94
  %98 = load ptr, ptr %7, align 8, !tbaa !260
  %99 = getelementptr inbounds nuw %struct.quic_listener_st, ptr %98, i32 0, i32 3
  %100 = load ptr, ptr %99, align 8, !tbaa !162
  call void @ossl_quic_port_free(ptr noundef %100)
  br label %101

101:                                              ; preds = %97, %94
  %102 = load ptr, ptr %7, align 8, !tbaa !260
  call void @CRYPTO_free(ptr noundef %102, ptr noundef @.str, i32 noundef 4358)
  call void @qctx_unlock(ptr noundef %6)
  %103 = getelementptr inbounds nuw %struct.qctx_st, ptr %6, i32 0, i32 1
  %104 = load ptr, ptr %103, align 8, !tbaa !158
  %105 = getelementptr inbounds nuw %struct.quic_domain_st, ptr %104, i32 0, i32 0
  %106 = getelementptr inbounds nuw %struct.quic_obj_st, ptr %105, i32 0, i32 0
  call void @SSL_free(ptr noundef %106)
  store ptr null, ptr %3, align 8
  store i32 1, ptr %9, align 4
  br label %107

107:                                              ; preds = %101, %90, %21, %13
  call void @llvm.lifetime.end.p0(i64 40, ptr %8) #10
  call void @llvm.lifetime.end.p0(i64 8, ptr %7) #10
  call void @llvm.lifetime.end.p0(i64 56, ptr %6) #10
  %108 = load ptr, ptr %3, align 8
  ret ptr %108
}