; Function Attrs: nounwind uwtable
define ptr @ossl_quic_new_listener_from(ptr noundef %0, i64 noundef %1) local_unnamed_addr #0 {
  %3 = alloca %struct.qctx_st, align 8
  %4 = alloca %struct.quic_port_args_st, align 8
  call void @llvm.lifetime.start.p0(i64 56, ptr nonnull %3) #12
  call void @llvm.lifetime.start.p0(i64 40, ptr nonnull %4) #12
  call void @llvm.memset.p0.i64(ptr noundef nonnull align 8 dereferenceable(40) %4, i8 0, i64 40, i1 false)
  %5 = call fastcc range(i32 0, 2) i32 @expect_quic_as(ptr noundef %0, ptr noundef nonnull %3, i32 noundef 128)
  %.not = icmp eq i32 %5, 0
  br i1 %.not, label %57, label %6

6:                                                ; preds = %2
  %7 = getelementptr inbounds nuw i8, ptr %3, i64 8
  %8 = load ptr, ptr %7, align 8, !tbaa !162
  %9 = call i32 @SSL_up_ref(ptr noundef %8) #12
  %.not18 = icmp eq i32 %9, 0
  br i1 %.not18, label %57, label %10

10:                                               ; preds = %6
  %.val = load ptr, ptr %3, align 8, !tbaa !157
  %11 = getelementptr i8, ptr %.val, i64 88
  %.val.val = load ptr, ptr %11, align 8, !tbaa !143
  %12 = call ptr @ossl_quic_engine_get0_mutex(ptr noundef %.val.val) #12
  call void @ossl_crypto_mutex_lock(ptr noundef %12) #12
  %13 = call noalias ptr @CRYPTO_zalloc(i64 noundef 160, ptr noundef nonnull @.str, i32 noundef 4312) #12
  %14 = icmp eq ptr %13, null
  br i1 %14, label %50, label %15

15:                                               ; preds = %10
  %16 = getelementptr inbounds nuw i8, ptr %0, i64 8
  %17 = load ptr, ptr %16, align 8, !tbaa !226
  %18 = getelementptr inbounds nuw i8, ptr %4, i64 24
  store ptr %17, ptr %18, align 8, !tbaa !110
  %19 = getelementptr inbounds nuw i8, ptr %4, i64 32
  store i32 1, ptr %19, align 8, !tbaa !221
  %20 = getelementptr inbounds nuw i8, ptr %4, i64 8
  store ptr @alloc_port_user_ssl, ptr %20, align 8, !tbaa !222
  %21 = getelementptr inbounds nuw i8, ptr %4, i64 16
  store ptr %13, ptr %21, align 8, !tbaa !223
  %22 = and i64 %1, 2
  %23 = icmp eq i64 %22, 0
  br i1 %23, label %24, label %26

24:                                               ; preds = %15
  %25 = getelementptr inbounds nuw i8, ptr %4, i64 36
  store i32 1, ptr %25, align 4, !tbaa !224
  br label %26

26:                                               ; preds = %24, %15
  %27 = load ptr, ptr %7, align 8, !tbaa !162
  %28 = getelementptr inbounds nuw i8, ptr %27, i64 120
  %29 = load ptr, ptr %28, align 8, !tbaa !137
  %30 = call ptr @ossl_quic_engine_create_port(ptr noundef %29, ptr noundef nonnull %4) #12
  %31 = getelementptr inbounds nuw i8, ptr %13, i64 136
  store ptr %30, ptr %31, align 8, !tbaa !139
  %32 = icmp eq ptr %30, null
  br i1 %32, label %33, label %34

33:                                               ; preds = %26
  call void (ptr, ptr, i32, ptr, i32, ptr, ...) @quic_raise_non_normal_error(ptr noundef null, ptr nonnull poison, i32 noundef 4325, ptr noundef nonnull @__func__.ossl_quic_new_listener_from, i32 noundef 786691, ptr noundef null)
  br label %51

34:                                               ; preds = %26
  %35 = load ptr, ptr %7, align 8, !tbaa !162
  %36 = getelementptr inbounds nuw i8, ptr %13, i64 120
  store ptr %35, ptr %36, align 8, !tbaa !141
  %37 = getelementptr inbounds nuw i8, ptr %35, i64 120
  %38 = load ptr, ptr %37, align 8, !tbaa !137
  %39 = getelementptr inbounds nuw i8, ptr %13, i64 128
  store ptr %38, ptr %39, align 8, !tbaa !142
  %40 = getelementptr inbounds nuw i8, ptr %35, i64 128
  %41 = load ptr, ptr %40, align 8, !tbaa !227
  %42 = getelementptr inbounds nuw i8, ptr %13, i64 144
  store ptr %41, ptr %42, align 8, !tbaa !220
  call void @ossl_quic_port_set_allow_incoming(ptr noundef nonnull %30, i32 noundef 1) #12
  %43 = load ptr, ptr %16, align 8, !tbaa !226
  %44 = load ptr, ptr %7, align 8, !tbaa !162
  %45 = load ptr, ptr %31, align 8, !tbaa !139
  %46 = call i32 @ossl_quic_obj_init(ptr noundef nonnull %13, ptr noundef %43, i32 noundef 130, ptr noundef %44, ptr noundef null, ptr noundef %45) #12
  %.not19 = icmp eq i32 %46, 0
  br i1 %.not19, label %51, label %47

47:                                               ; preds = %34
  %.val22 = load ptr, ptr %3, align 8, !tbaa !157
  %48 = getelementptr i8, ptr %.val22, i64 88
  %.val22.val = load ptr, ptr %48, align 8, !tbaa !143
  %49 = call ptr @ossl_quic_engine_get0_mutex(ptr noundef %.val22.val) #12
  call void @ossl_crypto_mutex_unlock(ptr noundef %49) #12
  br label %57

50:                                               ; preds = %10
  call void (ptr, ptr, i32, ptr, i32, ptr, ...) @quic_raise_non_normal_error(ptr noundef null, ptr nonnull poison, i32 noundef 4313, ptr noundef nonnull @__func__.ossl_quic_new_listener_from, i32 noundef 524303, ptr noundef null)
  br label %53

51:                                               ; preds = %34, %33
  %52 = load ptr, ptr %31, align 8, !tbaa !139
  call void @ossl_quic_port_free(ptr noundef %52) #12
  br label %53

53:                                               ; preds = %50, %51
  call void @CRYPTO_free(ptr noundef %13, ptr noundef nonnull @.str, i32 noundef 4358) #12
  %.val21 = load ptr, ptr %3, align 8, !tbaa !157
  %54 = getelementptr i8, ptr %.val21, i64 88
  %.val21.val = load ptr, ptr %54, align 8, !tbaa !143
  %55 = call ptr @ossl_quic_engine_get0_mutex(ptr noundef %.val21.val) #12
  call void @ossl_crypto_mutex_unlock(ptr noundef %55) #12
  %56 = load ptr, ptr %7, align 8, !tbaa !162
  call void @SSL_free(ptr noundef %56) #12
  br label %57

57:                                               ; preds = %6, %2, %53, %47
  %.0 = phi ptr [ null, %53 ], [ %13, %47 ], [ null, %2 ], [ null, %6 ]
  call void @llvm.lifetime.end.p0(i64 40, ptr nonnull %4) #12
  call void @llvm.lifetime.end.p0(i64 56, ptr nonnull %3) #12
  ret ptr %.0
}